(dp0
S'gaussian_graph(10000,3)'
p1
((lp2
(F0.00010485760000000006
F0.018500000000000003
tp3
a(F0.07
F0.13
tp4
a(lp5
(F0.000404586608766245
F0.030161562470424206
tp6
a(F0.32730594429074905
F0.5950555966174736
tp7
atp8
sS'lognormal_graph(10000,3)'
p9
((lp10
(F2.7487790694400027e-05
F0.015
tp11
a(F0.07
F0.14
tp12
a(lp13
(F0.0060051057733673
F0.07731630706938927
tp14
a(F0.2517282048618209
F0.5815650574396368
tp15
atp16
sS'watts_strogatz_graph(10000,6,0.1)'
p17
((lp18
(F0.00025600000000000004
F0.0175
tp19
a(F0.08
F0.21000000000000008
tp20
a(lp21
(F0.0006905711879558295
F0.03599722015267639
tp22
a(F0.19631727739425311
F0.5809588287813587
tp23
atp24
sS'exponential_graph(10000,3)'
p25
((lp26
(F2.7487790694400027e-05
F0.015
tp27
a(F0.07
F0.12
tp28
a(lp29
(F0.0013402504703287892
F0.035846763065219195
tp30
a(F0.30313688345473405
F0.5931715633719216
tp31
atp32
sS'gnm_random_graph(10000,80000)'
p33
((lp34
(F0.00032
F0.022000000000000002
tp35
a(F0.019999999999999997
F0.051250000000000004
tp36
a(lp37
(F0.0005823819230362331
F0.030284243102012817
tp38
a(F0.2705548313970504
F0.6256014303207672
tp39
atp40
sS'gnm_random_graph(10000,70000)'
p41
((lp42
(F0.0004
F0.022500000000000003
tp43
a(F0.024285714285714285
F0.05714285714285715
tp44
a(lp45
(F0.0006792306763864175
F0.0302995432634791
tp46
a(F0.28367148825730965
F0.6169044731637319
tp47
atp48
sS'gnm_random_graph(10000,100000)'
p49
((lp50
(F0.00032
F0.023000000000000003
tp51
a(F0.014
F0.043000000000000003
tp52
a(lp53
(F0.00048451745217671725
F0.03175855236334346
tp54
a(F0.24425930443224889
F0.6620603920886046
tp55
atp56
sS'gnm_random_graph(10000,90000)'
p57
((lp58
(F0.0004
F0.022500000000000003
tp59
a(F0.016666666666666663
F0.04666666666666667
tp60
a(lp61
(F0.0005852520464456829
F0.03019992233983042
tp62
a(F0.2561126053583178
F0.6519715914675679
tp63
atp64
sS'gnm_random_graph(10000,30000)'
p65
((lp66
(F0.00016384000000000006
F0.019000000000000003
tp67
a(F0.08
F0.14
tp68
a(lp69
(F0.0004432672017803717
F0.03037012875675419
tp70
a(F0.3349253716892244
F0.5890319815791386
tp71
atp72
sS'gnm_random_graph(10000,40000)'
p73
((lp74
(F0.00016384000000000006
F0.021500000000000002
tp75
a(F0.06
F0.1025
tp76
a(lp77
(F0.0005228417016762419
F0.030679802088300106
tp78
a(F0.34509468990828795
F0.5971598850016667
tp79
atp80
sS'gnm_random_graph(10000,50000)'
p81
((lp82
(F0.00025600000000000004
F0.021
tp83
a(F0.038
F0.086
tp84
a(lp85
(F0.0005247168299374618
F0.03070553158428505
tp86
a(F0.30682647702512245
F0.6354558629403027
tp87
atp88
sS'barabasi_albert_graph(10000,3)'
p89
((lp90
(F2.7487790694400027e-05
F0.015
tp91
a(F0.07
F0.14
tp92
a(lp93
(F0.0040028447665028865
F0.04450032561901259
tp94
a(F0.21303518856083584
F0.6229497137207807
tp95
atp96
sS'gnm_random_graph(10000,60000)'
p97
((lp98
(F0.0004
F0.022500000000000003
tp99
a(F0.03
F0.065
tp100
a(lp101
(F0.0006575381770412416
F0.030446600248579397
tp102
a(F0.29549760864546554
F0.5928208926770548
tp103
atp104
sS'watts_strogatz_graph(10000,6,0.7)'
p105
((lp106
(F0.00032
F0.020500000000000004
tp107
a(F0.08
F0.15000000000000002
tp108
a(lp109
(F0.0006646620622305522
F0.030413263052098388
tp110
a(F0.3221641117632997
F0.6004222628013077
tp111
atp112
sS'watts_strogatz_graph(10000,6,1.0)'
p113
((lp114
(F0.00032
F0.020000000000000004
tp115
a(F0.08
F0.15000000000000002
tp116
a(lp117
(F0.0006724729022633436
F0.030018007960719302
tp118
a(F0.326882188897004
F0.5994820050686157
tp119
atp120
sS'watts_strogatz_graph(10000,6,0.3)'
p121
((lp122
(F0.00025600000000000004
F0.018500000000000003
tp123
a(F0.08
F0.17000000000000004
tp124
a(lp125
(F0.0006760581942309895
F0.030137875025061767
tp126
a(F0.27286630743421136
F0.5971197005517943
tp127
atp128
sS'watts_strogatz_graph(10000,6,0.9)'
p129
((lp130
(F0.00032
F0.021000000000000005
tp131
a(F0.08
F0.15000000000000002
tp132
a(lp133
(F0.0006311932443483855
F0.030436949822163585
tp134
a(F0.33790413046261164
F0.6007390208711675
tp135
atp136
sS'watts_strogatz_graph(10000,6,0)'
p137
((lp138
(F2.7487790694400027e-05
F0.016
tp139
a(F0.08
F0.2400000000000001
tp140
a(lp141
(F0.002619662265436635
F0.04535305931968193
tp142
a(F0.08610888571823834
F0.41997106733883605
tp143
atp144
sS'watts_strogatz_graph(10000,6,0.5)'
p145
((lp146
(F0.00025600000000000004
F0.020500000000000004
tp147
a(F0.08
F0.15000000000000002
tp148
a(lp149
(F0.0005210642848569294
F0.030118214568933318
tp150
a(F0.3071225237330617
F0.5821590229221362
tp151
atp152
s.