(dp0
S'gnm_random_graph(10000,30000),1.0'
p1
((lp2
(F0.0003800000000000001
F0.024620000000000003
tp3
a(F0.54
F0.7500000000000001
tp4
a(lp5
(F0.0006831881179219003
F0.030092958890256236
tp6
a(F0.3642514350785447
F0.5375659659012185
tp7
atp8
sS'gnm_random_graph(10000,30000),0.1'
p9
((lp10
(F0.0003800000000000001
F0.024310000000000002
tp11
a(F0.08971733991384864
F0.13158543187364471
tp12
a(lp13
(F0.0005904312352266017
F0.030035908300735506
tp14
a(F0.3576852877982872
F0.5610291206929517
tp15
atp16
sS'gnm_random_graph(10000,30000),0.3'
p17
((lp18
(F0.0003800000000000001
F0.024310000000000002
tp19
a(F0.13694158875277637
F0.1968535338321161
tp20
a(lp21
(F0.0006100224248639598
F0.030639196320656335
tp22
a(F0.3650181948756158
F0.5375320451540568
tp23
atp24
sS'gnm_random_graph(10000,30000),0.5'
p25
((lp26
(F7.000000000000008e-05
F0.024620000000000003
tp27
a(F0.20820662813657012
F0.2939387691339813
tp28
a(lp29
(F0.00021901611143720296
F0.030939006964128445
tp30
a(F0.3241211637754277
F0.5388722828289517
tp31
atp32
sS'gnm_random_graph(10000,30000),0.7'
p33
((lp34
(F0.0003800000000000001
F0.024930000000000004
tp35
a(F0.29793724734461136
F0.42061729036886314
tp36
a(lp37
(F0.0005521844971220119
F0.03027873362893798
tp38
a(F0.36342034986043853
F0.5395712899018995
tp39
atp40
sS'gnm_random_graph(10000,30000),0.9'
p41
((lp42
(F7.000000000000008e-05
F0.024620000000000003
tp43
a(F0.4514177531220859
F0.6269691015584526
tp44
a(lp45
(F0.00042454515517329855
F0.030413759854681588
tp46
a(F0.2724179950029003
F0.5405297095311126
tp47
atp48
s.